; ModuleID = '19/878.c'
source_filename = "19/878.c"
target datalayout = "e-m:e-p270:32:32-p271:32:32-p272:64:64-i64:64-f80:128-n8:16:32:64-S128"
target triple = "x86_64-pc-linux-gnu"

@.str = private unnamed_addr constant [3 x i8] c"%c\00", align 1
@.str.1 = private unnamed_addr constant [3 x i8] c"%s\00", align 1

; Function Attrs: noinline nounwind uwtable
define dso_local i32 @main() #0 {
  %1 = alloca i32, align 4
  %2 = alloca [10000 x i8], align 16
  %3 = alloca [100 x i8], align 16
  %4 = alloca [100 x i8], align 16
  %5 = alloca i32, align 4
  %6 = alloca i32, align 4
  %7 = alloca i32, align 4
  %8 = alloca [10 x i32], align 16
  %9 = alloca i32, align 4
  %10 = alloca i32, align 4
  %11 = alloca i32, align 4
  %12 = alloca i32, align 4
  %13 = alloca i32, align 4
  %14 = alloca i32, align 4
  %15 = alloca i32, align 4
  store i32 0, i32* %1, align 4
  %16 = getelementptr inbounds [10000 x i8], [10000 x i8]* %2, i64 0, i64 0
  %17 = call i32 (i8*, ...) bitcast (i32 (...)* @gets to i32 (i8*, ...)*)(i8* %16)
  %18 = getelementptr inbounds [100 x i8], [100 x i8]* %3, i64 0, i64 0
  %19 = call i32 (i8*, ...) bitcast (i32 (...)* @gets to i32 (i8*, ...)*)(i8* %18)
  %20 = getelementptr inbounds [100 x i8], [100 x i8]* %4, i64 0, i64 0
  %21 = call i32 (i8*, ...) bitcast (i32 (...)* @gets to i32 (i8*, ...)*)(i8* %20)
  %22 = getelementptr inbounds [10000 x i8], [10000 x i8]* %2, i64 0, i64 0
  %23 = call i64 @strlen(i8* %22) #3
  %24 = getelementptr inbounds [100 x i8], [100 x i8]* %3, i64 0, i64 0
  %25 = call i64 @strlen(i8* %24) #3
  %26 = sub i64 %23, %25
  %27 = trunc i64 %26 to i32
  store i32 %27, i32* %5, align 4
  %28 = getelementptr inbounds [100 x i8], [100 x i8]* %3, i64 0, i64 0
  %29 = call i64 @strlen(i8* %28) #3
  %30 = trunc i64 %29 to i32
  store i32 %30, i32* %6, align 4
  %31 = getelementptr inbounds [10000 x i8], [10000 x i8]* %2, i64 0, i64 0
  %32 = call i64 @strlen(i8* %31) #3
  %33 = trunc i64 %32 to i32
  store i32 %33, i32* %7, align 4
  store i32 0, i32* %9, align 4
  store i32 0, i32* %10, align 4
  br label %34

34:                                               ; preds = %110, %0
  %35 = load i32, i32* %10, align 4
  %36 = load i32, i32* %5, align 4
  %37 = icmp sle i32 %35, %36
  br i1 %37, label %38, label %113

38:                                               ; preds = %34
  store i32 0, i32* %11, align 4
  store i32 0, i32* %12, align 4
  br label %39

39:                                               ; preds = %61, %38
  %40 = load i32, i32* %12, align 4
  %41 = load i32, i32* %6, align 4
  %42 = icmp slt i32 %40, %41
  br i1 %42, label %43, label %64

43:                                               ; preds = %39
  %44 = load i32, i32* %12, align 4
  %45 = sext i32 %44 to i64
  %46 = getelementptr inbounds [100 x i8], [100 x i8]* %3, i64 0, i64 %45
  %47 = load i8, i8* %46, align 1
  %48 = sext i8 %47 to i32
  %49 = load i32, i32* %12, align 4
  %50 = load i32, i32* %10, align 4
  %51 = add nsw i32 %49, %50
  %52 = sext i32 %51 to i64
  %53 = getelementptr inbounds [10000 x i8], [10000 x i8]* %2, i64 0, i64 %52
  %54 = load i8, i8* %53, align 1
  %55 = sext i8 %54 to i32
  %56 = icmp ne i32 %48, %55
  br i1 %56, label %57, label %60

57:                                               ; preds = %43
  %58 = load i32, i32* %11, align 4
  %59 = add nsw i32 %58, 1
  store i32 %59, i32* %11, align 4
  br label %60

60:                                               ; preds = %57, %43
  br label %61

61:                                               ; preds = %60
  %62 = load i32, i32* %12, align 4
  %63 = add nsw i32 %62, 1
  store i32 %63, i32* %12, align 4
  br label %39

64:                                               ; preds = %39
  %65 = load i32, i32* %11, align 4
  %66 = icmp eq i32 %65, 0
  br i1 %66, label %67, label %83

67:                                               ; preds = %64
  %68 = load i32, i32* %10, align 4
  %69 = sub nsw i32 %68, 1
  %70 = sext i32 %69 to i64
  %71 = getelementptr inbounds [10000 x i8], [10000 x i8]* %2, i64 0, i64 %70
  %72 = load i8, i8* %71, align 1
  %73 = sext i8 %72 to i32
  %74 = icmp eq i32 %73, 32
  br i1 %74, label %75, label %83

75:                                               ; preds = %67
  %76 = load i32, i32* %10, align 4
  %77 = load i32, i32* %9, align 4
  %78 = add nsw i32 %77, 1
  %79 = sext i32 %78 to i64
  %80 = getelementptr inbounds [10 x i32], [10 x i32]* %8, i64 0, i64 %79
  store i32 %76, i32* %80, align 4
  %81 = load i32, i32* %9, align 4
  %82 = add nsw i32 %81, 1
  store i32 %82, i32* %9, align 4
  br label %109

83:                                               ; preds = %67, %64
  %84 = load i32, i32* %11, align 4
  %85 = icmp eq i32 %84, 0
  br i1 %85, label %86, label %108

86:                                               ; preds = %83
  %87 = load i32, i32* %10, align 4
  %88 = sext i32 %87 to i64
  %89 = getelementptr inbounds [10000 x i8], [10000 x i8]* %2, i64 0, i64 %88
  %90 = load i8, i8* %89, align 1
  %91 = sext i8 %90 to i32
  %92 = icmp sge i32 %91, 65
  br i1 %92, label %93, label %108

93:                                               ; preds = %86
  %94 = load i32, i32* %10, align 4
  %95 = sext i32 %94 to i64
  %96 = getelementptr inbounds [10000 x i8], [10000 x i8]* %2, i64 0, i64 %95
  %97 = load i8, i8* %96, align 1
  %98 = sext i8 %97 to i32
  %99 = icmp sle i32 %98, 90
  br i1 %99, label %100, label %108

100:                                              ; preds = %93
  %101 = load i32, i32* %10, align 4
  %102 = load i32, i32* %9, align 4
  %103 = add nsw i32 %102, 1
  %104 = sext i32 %103 to i64
  %105 = getelementptr inbounds [10 x i32], [10 x i32]* %8, i64 0, i64 %104
  store i32 %101, i32* %105, align 4
  %106 = load i32, i32* %9, align 4
  %107 = add nsw i32 %106, 1
  store i32 %107, i32* %9, align 4
  br label %108

108:                                              ; preds = %100, %93, %86, %83
  br label %109

109:                                              ; preds = %108, %75
  br label %110

110:                                              ; preds = %109
  %111 = load i32, i32* %10, align 4
  %112 = add nsw i32 %111, 1
  store i32 %112, i32* %10, align 4
  br label %34

113:                                              ; preds = %34
  %114 = getelementptr inbounds [10 x i32], [10 x i32]* %8, i64 0, i64 0
  store i32 0, i32* %114, align 16
  %115 = load i32, i32* %7, align 4
  %116 = load i32, i32* %9, align 4
  %117 = add nsw i32 %116, 1
  %118 = sext i32 %117 to i64
  %119 = getelementptr inbounds [10 x i32], [10 x i32]* %8, i64 0, i64 %118
  store i32 %115, i32* %119, align 4
  %120 = getelementptr inbounds [10 x i32], [10 x i32]* %8, i64 0, i64 0
  %121 = load i32, i32* %120, align 16
  store i32 %121, i32* %13, align 4
  br label %122

122:                                              ; preds = %134, %113
  %123 = load i32, i32* %13, align 4
  %124 = getelementptr inbounds [10 x i32], [10 x i32]* %8, i64 0, i64 1
  %125 = load i32, i32* %124, align 4
  %126 = icmp slt i32 %123, %125
  br i1 %126, label %127, label %137

127:                                              ; preds = %122
  %128 = load i32, i32* %13, align 4
  %129 = sext i32 %128 to i64
  %130 = getelementptr inbounds [10000 x i8], [10000 x i8]* %2, i64 0, i64 %129
  %131 = load i8, i8* %130, align 1
  %132 = sext i8 %131 to i32
  %133 = call i32 (i8*, ...) @printf(i8* getelementptr inbounds ([3 x i8], [3 x i8]* @.str, i64 0, i64 0), i32 %132)
  br label %134

134:                                              ; preds = %127
  %135 = load i32, i32* %13, align 4
  %136 = add nsw i32 %135, 1
  store i32 %136, i32* %13, align 4
  br label %122

137:                                              ; preds = %122
  store i32 1, i32* %14, align 4
  br label %138

138:                                              ; preds = %170, %137
  %139 = load i32, i32* %14, align 4
  %140 = load i32, i32* %9, align 4
  %141 = icmp sle i32 %139, %140
  br i1 %141, label %142, label %173

142:                                              ; preds = %138
  %143 = getelementptr inbounds [100 x i8], [100 x i8]* %4, i64 0, i64 0
  %144 = call i32 (i8*, ...) @printf(i8* getelementptr inbounds ([3 x i8], [3 x i8]* @.str.1, i64 0, i64 0), i8* %143)
  %145 = load i32, i32* %14, align 4
  %146 = sext i32 %145 to i64
  %147 = getelementptr inbounds [10 x i32], [10 x i32]* %8, i64 0, i64 %146
  %148 = load i32, i32* %147, align 4
  %149 = load i32, i32* %6, align 4
  %150 = add nsw i32 %148, %149
  store i32 %150, i32* %15, align 4
  br label %151

151:                                              ; preds = %166, %142
  %152 = load i32, i32* %15, align 4
  %153 = load i32, i32* %14, align 4
  %154 = add nsw i32 %153, 1
  %155 = sext i32 %154 to i64
  %156 = getelementptr inbounds [10 x i32], [10 x i32]* %8, i64 0, i64 %155
  %157 = load i32, i32* %156, align 4
  %158 = icmp slt i32 %152, %157
  br i1 %158, label %159, label %169

159:                                              ; preds = %151
  %160 = load i32, i32* %15, align 4
  %161 = sext i32 %160 to i64
  %162 = getelementptr inbounds [10000 x i8], [10000 x i8]* %2, i64 0, i64 %161
  %163 = load i8, i8* %162, align 1
  %164 = sext i8 %163 to i32
  %165 = call i32 (i8*, ...) @printf(i8* getelementptr inbounds ([3 x i8], [3 x i8]* @.str, i64 0, i64 0), i32 %164)
  br label %166

166:                                              ; preds = %159
  %167 = load i32, i32* %15, align 4
  %168 = add nsw i32 %167, 1
  store i32 %168, i32* %15, align 4
  br label %151

169:                                              ; preds = %151
  br label %170

170:                                              ; preds = %169
  %171 = load i32, i32* %14, align 4
  %172 = add nsw i32 %171, 1
  store i32 %172, i32* %14, align 4
  br label %138

173:                                              ; preds = %138
  ret i32 0
}

declare dso_local i32 @gets(...) #1

; Function Attrs: nounwind readonly
declare dso_local i64 @strlen(i8*) #2

declare dso_local i32 @printf(i8*, ...) #1


!llvm.module.flags = !{!0}
!llvm.ident = !{!1}

!0 = !{i32 1, !"wchar_size", i32 4}
!1 = !{!"clang version 10.0.0-4ubuntu1 "}
